target datalayout = "e-m:e-p270:32:32-p271:32:32-p272:64:64-i64:64-i128:128-f80:128-n8:16:32:64-S128"
target triple = "x86_64-pc-linux-gnu"

%struct.evbuffer = type { ptr, ptr, ptr, i64, i64, i64, i64, ptr, i8, i32, ptr, i32, %struct.event_callback, %struct.evbuffer_cb_queue, ptr }
%struct.event_callback = type { %struct.anon, i16, i8, i8, %union.anon, ptr }
%struct.anon = type { ptr, ptr }
%union.anon = type { ptr }
%struct.evbuffer_cb_queue = type { ptr }

; Function Attrs: nounwind uwtable
define ptr @evbuffer_new() #0 {
  %1 = alloca ptr, align 8
  %2 = alloca ptr, align 8
  %3 = alloca i32, align 4
  call void @llvm.lifetime.start.p0(i64 8, ptr %2) #10
  %4 = call ptr @event_mm_calloc_(i64 noundef 1, i64 noundef 144)
  store ptr %4, ptr %2, align 8
  %5 = load ptr, ptr %2, align 8
  %6 = icmp eq ptr %5, null
  br i1 %6, label %7, label %8

7:                                                ; preds = %0
  store ptr null, ptr %1, align 8
  store i32 1, ptr %3, align 4
  br label %24

8:                                                ; preds = %0
  br label %9

9:                                                ; preds = %8
  %10 = load ptr, ptr %2, align 8
  %11 = getelementptr inbounds nuw %struct.evbuffer, ptr %10, i32 0, i32 13
  %12 = getelementptr inbounds nuw %struct.evbuffer_cb_queue, ptr %11, i32 0, i32 0
  store ptr null, ptr %12, align 8
  br label %13

13:                                               ; preds = %9
  br label %14

14:                                               ; preds = %13
  %15 = load ptr, ptr %2, align 8
  %16 = getelementptr inbounds nuw %struct.evbuffer, ptr %15, i32 0, i32 11
  store i32 1, ptr %16, align 8
  %17 = load ptr, ptr %2, align 8
  %18 = getelementptr inbounds nuw %struct.evbuffer, ptr %17, i32 0, i32 0
  %19 = load ptr, ptr %2, align 8
  %20 = getelementptr inbounds nuw %struct.evbuffer, ptr %19, i32 0, i32 2
  store ptr %18, ptr %20, align 8
  %21 = load ptr, ptr %2, align 8
  %22 = getelementptr inbounds nuw %struct.evbuffer, ptr %21, i32 0, i32 4
  store i64 4096, ptr %22, align 8
  %23 = load ptr, ptr %2, align 8
  store ptr %23, ptr %1, align 8
  store i32 1, ptr %3, align 4
  br label %24

24:                                               ; preds = %14, %7
  call void @llvm.lifetime.end.p0(i64 8, ptr %2) #10
  %25 = load ptr, ptr %1, align 8
  ret ptr %25
}