; Function Attrs: nounwind uwtable
define ptr @evbuffer_new() local_unnamed_addr #1 {
  %1 = tail call ptr @event_mm_calloc_(i64 noundef 1, i64 noundef 144) #16
  %2 = icmp eq ptr %1, null
  br i1 %2, label %8, label %3

3:                                                ; preds = %0
  %4 = getelementptr inbounds nuw i8, ptr %1, i64 128
  store ptr null, ptr %4, align 8
  %5 = getelementptr inbounds nuw i8, ptr %1, i64 80
  store i32 1, ptr %5, align 8
  %6 = getelementptr inbounds nuw i8, ptr %1, i64 16
  store ptr %1, ptr %6, align 8
  %7 = getelementptr inbounds nuw i8, ptr %1, i64 32
  store i64 4096, ptr %7, align 8
  br label %8

8:                                                ; preds = %0, %3
  ret ptr %1
}